Certificate:
    Data:
        Version: 3 (0x2)
        Serial Number:
            15:f5:84:11:f5:04:51:22:b9:89:29:04:4e:41:a8:2e
    Signature Algorithm: sha256WithRSAEncryption
        Issuer: CN=proxis ca
        Validity
            Not Before: Mar 27 10:47:15 2019 GMT
            Not After : Mar 25 10:47:15 2024 GMT
        Subject: CN=server
        Subject Public Key Info:
            Public Key Algorithm: rsaEncryption
                Public-Key: (2560 bit)
                Modulus:
                    00:de:f2:e5:de:c4:9c:6f:8c:a8:f3:82:22:81:56:
                    b0:40:de:73:f8:ea:2d:f9:f9:96:6f:3e:51:8c:9c:
                    76:ef:ac:c5:68:08:d8:25:b9:be:89:ab:68:ec:98:
                    85:76:21:4e:64:be:be:c5:6e:c1:f1:d7:3c:57:2a:
                    e7:ff:be:b5:45:9f:f1:03:e3:2e:9c:4a:35:95:b6:
                    d7:8e:76:79:73:07:fe:a3:49:4f:f3:f3:2b:d2:ef:
                    af:80:86:59:16:0e:b2:20:79:02:c8:8a:88:05:c1:
                    4a:2b:33:b0:3a:b2:c2:eb:48:9a:58:ad:6b:19:74:
                    24:45:0b:b2:60:f0:0c:37:c7:89:0f:42:d3:fa:dc:
                    ba:1a:e2:6f:37:d5:a4:08:08:4a:5f:aa:7c:32:6d:
                    8b:42:e4:64:f2:8a:c0:5f:44:13:95:6e:a1:fb:3a:
                    02:91:bf:d7:a9:5d:b8:c4:bc:07:3f:40:8c:86:5e:
                    78:08:7e:03:ef:ea:13:c3:12:25:0b:9d:81:75:b9:
                    37:2d:a8:57:e6:99:c6:c0:72:f0:98:c5:10:e5:30:
                    0f:a6:3c:b6:cc:13:bd:76:d3:37:28:4b:5b:79:bb:
                    9b:aa:80:58:84:7a:3d:47:0e:3c:91:b2:45:36:dc:
                    32:46:6b:08:c5:13:53:62:88:45:b6:86:11:2a:da:
                    d8:99:9d:73:c4:29:2b:38:28:f3:b9:fd:01:4c:91:
                    f3:7a:af:fc:78:db:5a:31:3c:21:e8:ab:dd:67:9a:
                    5b:64:cf:25:66:80:0a:9c:e4:45:e3:bd:fa:59:37:
                    99:82:f1:23:e6:b9:23:45:67:f6:c3:0d:3d:ea:75:
                    5c:dc:a0:a7:75:91
                Exponent: 65537 (0x10001)
        X509v3 extensions:
            X509v3 Basic Constraints: 
                CA:FALSE
            X509v3 Subject Key Identifier: 
                B5:92:A8:A0:69:FA:20:93:84:F6:1E:3F:67:66:E3:6C:C7:2C:FE:B4
            X509v3 Authority Key Identifier: 
                keyid:90:A9:BB:9E:2A:64:FB:EA:1C:1C:D0:84:83:B8:9C:C8:4D:99:26:5F
                DirName:/CN=proxis ca
                serial:AC:8B:23:77:2A:3C:B3:6E

            X509v3 Extended Key Usage: 
                TLS Web Server Authentication
            X509v3 Key Usage: 
                Digital Signature, Key Encipherment
            X509v3 Subject Alternative Name: 
                DNS:server
    Signature Algorithm: sha256WithRSAEncryption
         54:0f:04:2e:99:89:82:3f:42:4a:d2:e8:aa:d4:14:4a:41:ce:
         f8:fd:29:18:56:37:64:a5:1a:3d:af:d7:a7:8f:59:90:b4:f7:
         88:85:11:b2:a0:17:5c:17:a0:59:51:89:7f:ca:0b:05:cb:77:
         d5:e7:01:ff:4e:98:d0:bc:13:f6:85:e4:2a:39:5e:f1:e0:94:
         dd:ce:9b:21:e6:57:8d:67:8d:d3:00:50:9a:fb:56:42:de:13:
         90:a2:fe:61:a9:10:d5:31:b2:8f:6c:8d:27:3b:f9:28:45:df:
         fc:cc:b1:f7:ec:ec:e3:83:d0:e8:b3:2f:9c:5f:7a:ef:34:52:
         9f:6b:42:6c:9e:bb:72:14:94:87:59:3a:e2:74:14:b5:90:08:
         e1:d0:24:d7:87:9f:b1:7e:25:55:4c:e3:c2:b4:f2:9a:ca:0c:
         b1:03:6c:17:c1:25:40:00:95:cb:c3:e6:32:48:40:1a:91:cc:
         4d:e4:49:72:be:c8:f2:7a:f9:21:8e:a4:fa:8b:90:a8:3c:6b:
         6b:3f:ff:b3:e1:c6:ba:fd:9a:0a:72:89:a5:9c:28:49:81:03:
         d9:4f:77:a5:01:d0:23:aa:2f:21:d4:26:2c:39:3c:00:61:dc:
         ff:bf:21:1d:b0:95:17:75:60:42:70:38:bb:61:4c:b8:3c:d3:
         ae:20:43:91:bd:0d:73:1f:91:3f:f2:bd:1f:eb:4f:f7:37:43:
         40:ba:35:a0:ee:57:98:54:b7:8d:b4:87:f8:ee:dd:40:c3:09:
         de:73:72:89:20:a2:13:da:77:51:46:b1:e6:97:ad:dd:fd:b4:
         bb:f9:47:9e:9f:05:00:29:dd:4f:28:6c:2e:7e
-----BEGIN CERTIFICATE-----
MIID2DCCAoCgAwIBAgIQFfWEEfUEUSK5iSkETkGoLjANBgkqhkiG9w0BAQsFADAU
MRIwEAYDVQQDDAlwcm94aXMgY2EwHhcNMTkwMzI3MTA0NzE1WhcNMjQwMzI1MTA0
NzE1WjARMQ8wDQYDVQQDDAZzZXJ2ZXIwggFiMA0GCSqGSIb3DQEBAQUAA4IBTwAw
ggFKAoIBQQDe8uXexJxvjKjzgiKBVrBA3nP46i35+ZZvPlGMnHbvrMVoCNglub6J
q2jsmIV2IU5kvr7FbsHx1zxXKuf/vrVFn/ED4y6cSjWVtteOdnlzB/6jSU/z8yvS
76+AhlkWDrIgeQLIiogFwUorM7A6ssLrSJpYrWsZdCRFC7Jg8Aw3x4kPQtP63Loa
4m831aQICEpfqnwybYtC5GTyisBfRBOVbqH7OgKRv9epXbjEvAc/QIyGXngIfgPv
6hPDEiULnYF1uTctqFfmmcbAcvCYxRDlMA+mPLbME7120zcoS1t5u5uqgFiEej1H
DjyRskU23DJGawjFE1NiiEW2hhEq2tiZnXPEKSs4KPO5/QFMkfN6r/x421oxPCHo
q91nmltkzyVmgAqc5EXjvfpZN5mC8SPmuSNFZ/bDDT3qdVzcoKd1kQIDAQABo4Go
MIGlMAkGA1UdEwQCMAAwHQYDVR0OBBYEFLWSqKBp+iCThPYeP2dm42zHLP60MEQG
A1UdIwQ9MDuAFJCpu54qZPvqHBzQhIO4nMhNmSZfoRikFjAUMRIwEAYDVQQDDAlw
cm94aXMgY2GCCQCsiyN3KjyzbjATBgNVHSUEDDAKBggrBgEFBQcDATALBgNVHQ8E
BAMCBaAwEQYDVR0RBAowCIIGc2VydmVyMA0GCSqGSIb3DQEBCwUAA4IBQQBUDwQu
mYmCP0JK0uiq1BRKQc74/SkYVjdkpRo9r9enj1mQtPeIhRGyoBdcF6BZUYl/ygsF
y3fV5wH/TpjQvBP2heQqOV7x4JTdzpsh5leNZ43TAFCa+1ZC3hOQov5hqRDVMbKP
bI0nO/koRd/8zLH37Ozjg9Dosy+cX3rvNFKfa0JsnrtyFJSHWTridBS1kAjh0CTX
h5+xfiVVTOPCtPKaygyxA2wXwSVAAJXLw+YySEAakcxN5ElyvsjyevkhjqT6i5Co
PGtrP/+z4ca6/ZoKcomlnChJgQPZT3elAdAjqi8h1CYsOTwAYdz/vyEdsJUXdWBC
cDi7YUy4PNOuIEORvQ1zH5E/8r0f60/3N0NAujWg7leYVLeNtIf47t1Awwnec3KJ
IKIT2ndRRrHml63d/bS7+UeenwUAKd1PKGwufg==
-----END CERTIFICATE-----
